target datalayout = "e-m:e-p270:32:32-p271:32:32-p272:64:64-i64:64-i128:128-f80:128-n8:16:32:64-S128"
target triple = "x86_64-pc-linux-gnu"

%struct.Ifd_Man_t_ = type { ptr, i32, i32, ptr, ptr, ptr, ptr, ptr, ptr, ptr }

@.str.1 = private unnamed_addr constant [2 x i8] c"\0A\00", align 1
@.str.4 = private unnamed_addr constant [2 x i8] c"0\00", align 1
@.str.5 = private unnamed_addr constant [2 x i8] c"1\00", align 1
@.str.6 = private unnamed_addr constant [7 x i8] c"%4d : \00", align 1

; Function Attrs: nounwind uwtable
define void @Ifd_ObjPrint(ptr noundef %0, i32 noundef %1) #0 {
  %3 = alloca ptr, align 8
  %4 = alloca i32, align 4
  %5 = alloca i32, align 4
  %6 = alloca i32, align 4
  store ptr %0, ptr %3, align 8, !tbaa !3
  store i32 %1, ptr %4, align 4, !tbaa !24
  call void @llvm.lifetime.start.p0(i64 4, ptr %5) #12
  store i32 0, ptr %5, align 4, !tbaa !24
  %7 = load i32, ptr %4, align 4, !tbaa !24
  %8 = icmp eq i32 %7, 0
  br i1 %8, label %9, label %11

9:                                                ; preds = %2
  %10 = call i32 (ptr, ...) @printf(ptr noundef @.str.4)
  store i32 1, ptr %6, align 4
  br label %19

11:                                               ; preds = %2
  %12 = load i32, ptr %4, align 4, !tbaa !24
  %13 = icmp eq i32 %12, 1
  br i1 %13, label %14, label %16

14:                                               ; preds = %11
  %15 = call i32 (ptr, ...) @printf(ptr noundef @.str.5)
  store i32 1, ptr %6, align 4
  br label %19

16:                                               ; preds = %11
  %17 = load ptr, ptr %3, align 8, !tbaa !3
  %18 = load i32, ptr %4, align 4, !tbaa !24
  call void @Ifd_ObjPrint_rec(ptr noundef %17, i32 noundef %18, ptr noundef %5, i32 noundef 1)
  store i32 0, ptr %6, align 4
  br label %19

19:                                               ; preds = %16, %14, %9
  call void @llvm.lifetime.end.p0(i64 4, ptr %5) #12
  %20 = load i32, ptr %6, align 4
  switch i32 %20, label %22 [
    i32 0, label %21
    i32 1, label %21
  ]

21:                                               ; preds = %19, %19
  ret void

22:                                               ; preds = %19
  unreachable
}

; Function Attrs: inlinehint nounwind uwtable
define internal i32 @Abc_Var2Lit(i32 noundef %0, i32 noundef %1) #3 {
  %3 = alloca i32, align 4
  %4 = alloca i32, align 4
  store i32 %0, ptr %3, align 4, !tbaa !24
  store i32 %1, ptr %4, align 4, !tbaa !24
  %5 = load i32, ptr %3, align 4, !tbaa !24
  %6 = load i32, ptr %3, align 4, !tbaa !24
  %7 = add nsw i32 %5, %6
  %8 = load i32, ptr %4, align 4, !tbaa !24
  %9 = add nsw i32 %7, %8
  ret i32 %9
}

; Function Attrs: nounwind uwtable
define void @Ifd_ManPrint2(ptr noundef %0) #0 {
  %2 = alloca ptr, align 8
  %3 = alloca i32, align 4
  store ptr %0, ptr %2, align 8, !tbaa !3
  call void @llvm.lifetime.start.p0(i64 4, ptr %3) #12
  store i32 0, ptr %3, align 4, !tbaa !24
  br label %4

4:                                                ; preds = %17, %1
  %5 = load i32, ptr %3, align 4, !tbaa !24
  %6 = load ptr, ptr %2, align 8, !tbaa !3
  %7 = getelementptr inbounds nuw %struct.Ifd_Man_t_, ptr %6, i32 0, i32 1
  %8 = load i32, ptr %7, align 8, !tbaa !15
  %9 = icmp slt i32 %5, %8
  br i1 %9, label %10, label %20

10:                                               ; preds = %4
  %11 = load i32, ptr %3, align 4, !tbaa !24
  %12 = call i32 (ptr, ...) @printf(ptr noundef @.str.6, i32 noundef %11)
  %13 = load ptr, ptr %2, align 8, !tbaa !3
  %14 = load i32, ptr %3, align 4, !tbaa !24
  %15 = call i32 @Abc_Var2Lit(i32 noundef %14, i32 noundef 0)
  call void @Ifd_ObjPrint(ptr noundef %13, i32 noundef %15)
  %16 = call i32 (ptr, ...) @printf(ptr noundef @.str.1)
  br label %17

17:                                               ; preds = %10
  %18 = load i32, ptr %3, align 4, !tbaa !24
  %19 = add nsw i32 %18, 1
  store i32 %19, ptr %3, align 4, !tbaa !24
  br label %4, !llvm.loop !54

20:                                               ; preds = %4
  call void @llvm.lifetime.end.p0(i64 4, ptr %3) #12
  ret void
}