; Function Attrs: nofree nounwind uwtable
define void @Ifd_ManPrint2(ptr noundef %0) local_unnamed_addr #8 {
  %2 = alloca i32, align 4
  %3 = getelementptr inbounds nuw i8, ptr %0, i64 8
  %4 = load i32, ptr %3, align 8, !tbaa !16
  %5 = icmp sgt i32 %4, 0
  br i1 %5, label %.lr.ph, label %._crit_edge

.lr.ph:                                           ; preds = %1, %Ifd_ObjPrint.exit
  %.05 = phi i32 [ %10, %Ifd_ObjPrint.exit ], [ 0, %1 ]
  %6 = call i32 (ptr, ...) @printf(ptr noundef nonnull dereferenceable(1) @.str.6, i32 noundef %.05)
  call void @llvm.lifetime.start.p0(i64 4, ptr nonnull %2) #28
  store i32 0, ptr %2, align 4, !tbaa !37
  %cond = icmp eq i32 %.05, 0
  br i1 %cond, label %7, label %8

7:                                                ; preds = %.lr.ph
  %putchar3.i = call i32 @putchar(i32 48)
  br label %Ifd_ObjPrint.exit

8:                                                ; preds = %.lr.ph
  %9 = shl nuw nsw i32 %.05, 1
  call void @Ifd_ObjPrint_rec(ptr noundef nonnull %0, i32 noundef %9, ptr noundef nonnull %2, i32 noundef 1)
  br label %Ifd_ObjPrint.exit

Ifd_ObjPrint.exit:                                ; preds = %7, %8
  call void @llvm.lifetime.end.p0(i64 4, ptr nonnull %2) #28
  %putchar = call i32 @putchar(i32 10)
  %10 = add nuw nsw i32 %.05, 1
  %11 = load i32, ptr %3, align 8, !tbaa !16
  %12 = icmp slt i32 %10, %11
  br i1 %12, label %.lr.ph, label %._crit_edge, !llvm.loop !45

._crit_edge:                                      ; preds = %Ifd_ObjPrint.exit, %1
  ret void
}